; ModuleID = 'source-C-CXX/26/145.c'
source_filename = "source-C-CXX/26/145.c"
target datalayout = "e-m:e-p270:32:32-p271:32:32-p272:64:64-i64:64-f80:128-n8:16:32:64-S128"
target triple = "x86_64-pc-linux-gnu"

@.str = private unnamed_addr constant [3 x i8] c"%d\00", align 1
@.str.1 = private unnamed_addr constant [12 x i8] c"%lf %lf %lf\00", align 1
@.str.2 = private unnamed_addr constant [13 x i8] c"x1=x2=%.5lf\0A\00", align 1
@.str.3 = private unnamed_addr constant [19 x i8] c"x1=%.5lf;x2=%.5lf\0A\00", align 1
@.str.4 = private unnamed_addr constant [33 x i8] c"x1=%.5lf+%.5lfi;x2=%.5lf-%.5lfi\0A\00", align 1

; Function Attrs: nofree nounwind sspstrong uwtable
define dso_local void @main() local_unnamed_addr #0 {
  %1 = alloca double, align 8
  %2 = alloca double, align 8
  %3 = alloca double, align 8
  %4 = alloca i32, align 4
  %5 = bitcast double* %1 to i8*
  call void @llvm.lifetime.start.p0i8(i64 8, i8* nonnull %5) #5
  %6 = bitcast double* %2 to i8*
  call void @llvm.lifetime.start.p0i8(i64 8, i8* nonnull %6) #5
  %7 = bitcast double* %3 to i8*
  call void @llvm.lifetime.start.p0i8(i64 8, i8* nonnull %7) #5
  %8 = bitcast i32* %4 to i8*
  call void @llvm.lifetime.start.p0i8(i64 4, i8* nonnull %8) #5
  %9 = call i32 (i8*, ...) @__isoc99_scanf(i8* getelementptr inbounds ([3 x i8], [3 x i8]* @.str, i64 0, i64 0), i32* nonnull %4)
  %10 = load i32, i32* %4, align 4, !tbaa !5
  %11 = icmp sgt i32 %10, 0
  br i1 %11, label %12, label %56

12:                                               ; preds = %0, %52
  %13 = phi i32 [ %53, %52 ], [ 0, %0 ]
  %14 = call i32 (i8*, ...) @__isoc99_scanf(i8* getelementptr inbounds ([12 x i8], [12 x i8]* @.str.1, i64 0, i64 0), double* nonnull %1, double* nonnull %2, double* nonnull %3)
  %15 = load double, double* %2, align 8, !tbaa !9
  %16 = fmul double %15, %15
  %17 = load double, double* %1, align 8, !tbaa !9
  %18 = fmul double %17, 4.000000e+00
  %19 = load double, double* %3, align 8, !tbaa !9
  %20 = fmul double %18, %19
  %21 = fsub double %16, %20
  %22 = fneg double %15
  %23 = fmul double %17, 2.000000e+00
  %24 = fdiv double %22, %23
  %25 = call double @llvm.fabs.f64(double %21)
  %26 = fcmp ugt double %25, 0x3EB0C6F7A0B5ED8D
  br i1 %26, label %29, label %27

27:                                               ; preds = %12
  %28 = call i32 (i8*, ...) @printf(i8* nonnull dereferenceable(1) getelementptr inbounds ([13 x i8], [13 x i8]* @.str.2, i64 0, i64 0), double %24)
  br label %52

29:                                               ; preds = %12
  %30 = fcmp ogt double %21, 0x3EB0C6F7A0B5ED8D
  br i1 %30, label %31, label %43

31:                                               ; preds = %29
  %32 = call double @sqrt(double %21) #5
  %33 = load double, double* %1, align 8, !tbaa !9
  %34 = fmul double %33, 2.000000e+00
  %35 = fdiv double %32, %34
  %36 = fadd double %24, %35
  %37 = call double @sqrt(double %21) #5
  %38 = load double, double* %1, align 8, !tbaa !9
  %39 = fmul double %38, 2.000000e+00
  %40 = fdiv double %37, %39
  %41 = fsub double %24, %40
  %42 = call i32 (i8*, ...) @printf(i8* nonnull dereferenceable(1) getelementptr inbounds ([19 x i8], [19 x i8]* @.str.3, i64 0, i64 0), double %36, double %41)
  br label %52

43:                                               ; preds = %29
  %44 = fcmp olt double %21, 0x3EB0C6F7A0B5ED8D
  br i1 %44, label %45, label %52

45:                                               ; preds = %43
  %46 = fneg double %21
  %47 = call double @sqrt(double %46) #5
  %48 = load double, double* %1, align 8, !tbaa !9
  %49 = fmul double %48, 2.000000e+00
  %50 = fdiv double %47, %49
  %51 = call i32 (i8*, ...) @printf(i8* nonnull dereferenceable(1) getelementptr inbounds ([33 x i8], [33 x i8]* @.str.4, i64 0, i64 0), double %24, double %50, double %24, double %50)
  br label %52

52:                                               ; preds = %27, %43, %45, %31
  %53 = add nuw nsw i32 %13, 1
  %54 = load i32, i32* %4, align 4, !tbaa !5
  %55 = icmp slt i32 %53, %54
  br i1 %55, label %12, label %56, !llvm.loop !11

56:                                               ; preds = %52, %0
  call void @llvm.lifetime.end.p0i8(i64 4, i8* nonnull %8) #5
  call void @llvm.lifetime.end.p0i8(i64 8, i8* nonnull %7) #5
  call void @llvm.lifetime.end.p0i8(i64 8, i8* nonnull %6) #5
  call void @llvm.lifetime.end.p0i8(i64 8, i8* nonnull %5) #5
  ret void
}

; Function Attrs: argmemonly mustprogress nofree nosync nounwind willreturn
declare void @llvm.lifetime.start.p0i8(i64 immarg, i8* nocapture) #1

; Function Attrs: nofree nounwind
declare noundef i32 @__isoc99_scanf(i8* nocapture noundef readonly, ...) local_unnamed_addr #2

; Function Attrs: mustprogress nofree nosync nounwind readnone speculatable willreturn
declare double @llvm.fabs.f64(double) #3

; Function Attrs: nofree nounwind
declare noundef i32 @printf(i8* nocapture noundef readonly, ...) local_unnamed_addr #2

; Function Attrs: mustprogress nofree nounwind willreturn
declare double @sqrt(double) local_unnamed_addr #4

; Function Attrs: argmemonly mustprogress nofree nosync nounwind willreturn
declare void @llvm.lifetime.end.p0i8(i64 immarg, i8* nocapture) #1


!llvm.module.flags = !{!0, !1, !2, !3}
!llvm.ident = !{!4}

!0 = !{i32 1, !"wchar_size", i32 4}
!1 = !{i32 7, !"PIC Level", i32 2}
!2 = !{i32 7, !"PIE Level", i32 2}
!3 = !{i32 7, !"uwtable", i32 1}
!4 = !{!"clang version 13.0.0"}
!5 = !{!6, !6, i64 0}
!6 = !{!"int", !7, i64 0}
!7 = !{!"omnipotent char", !8, i64 0}
!8 = !{!"Simple C/C++ TBAA"}
!9 = !{!10, !10, i64 0}
!10 = !{!"double", !7, i64 0}
!11 = distinct !{!11, !12}
!12 = !{!"llvm.loop.mustprogress"}
